(lp1
S'ITS_dbImages/GlobalContrastFactor/GlobalContrastFactor_inspCrit=0.1_remWin=0.4_doublePenalty_trial_5_pop=367_ind=94.png'
p2
aS'ITS_dbImages/GlobalContrastFactor/GlobalContrastFactor_inspCrit=0.1_noRemWin_doublePenalty_trial_1_pop=57_ind=56.png'
p3
aS'ITS_dbImages/GlobalContrastFactor/GlobalContrastFactor_inspCrit=0.1_noRemWin_doublePenalty_trial_1_pop=226_ind=115.png'
p4
aS'ITS_dbImages/NV+RS/NV+RS_inspCrit=0.05_noRemWin_noPenalty_trial_4_pop=350_ind=86.png'
p5
aS'ITS_dbImages/NV+RS/NV+RS_inspCrit=0.05_remWin=0.3_noPenalty_trial_1_pop=94_ind=33.png'
p6
aS'ITS_dbImages/NV+RS/NV+RS_inspCrit=0.04_noRemWin_noPenalty_trial_8_pop=421_ind=141.png'
p7
aS'ITS_dbImages/Tenengrad/Tenengrad_inspCrit=0.1_remWin=0.5_doublePenalty_trial_1_pop=388_ind=130.png'
p8
aS'ITS_dbImages/Tenengrad/Tenengrad_inspCrit=0.1_noRemWin_doublePenalty_trial_2_pop=120_ind=140.png'
p9
aS'ITS_dbImages/Tenengrad/Tenengrad_inspCrit=0.1_noRemWin_doublePenalty_trial_1_pop=41_ind=110.png'
p10
aS'ITS_dbImages/NormalizedVariance/NormalizedVariance_inspCrit=0.02_noRemWin_noPenalty_trial_9_pop=133_ind=5.png'
p11
aS'ITS_dbImages/NormalizedVariance/506716359077121559.png'
p12
aS'ITS_dbImages/NormalizedVariance/-2340407202880966822.png'
p13
aS'ITS_dbImages/NormalizedVariance/NormalizedVariance_inspCrit=0.01_remWin=0.3_noPenalty_trial_4_pop=374_ind=140.png'
p14
aS'ITS_dbImages/RelaxedSymmetry/RelaxedSymmetry_inspCrit=0.01_noRemWin_noPenalty_trial_4_pop=395_ind=65.png'
p15
aS'ITS_dbImages/RelaxedSymmetry/RelaxedSymmetry_inspCrit=0.02_remWin=0.4_noPenalty_trial_3_pop=407_ind=28.png'
p16
aS'ITS_dbImages/RelaxedSymmetry/RelaxedSymmetry_inspCrit=0.01_remWin=0.4_noPenalty_trial_4_pop=371_ind=33.png'
p17
a.