(lp1
S'../clusterFeatures/clusterResults/GlobalContrastFactor_doublePenalty/trial_3/statistics'
p2
aS'../clusterFeatures/clusterResults/GlobalContrastFactor_doublePenalty/trial_1/statistics'
p3
aS'../clusterFeatures/clusterResults/GlobalContrastFactor_doublePenalty/trial_4/statistics'
p4
aS'../clusterFeatures/clusterResults/GlobalContrastFactor_doublePenalty/trial_5/statistics'
p5
aS'../clusterFeatures/clusterResults/GlobalContrastFactor_doublePenalty/trial_2/statistics'
p6
aS'../clusterFeatures/clusterResults/Tenengrad_doublePenalty/trial_3/statistics'
p7
aS'../clusterFeatures/clusterResults/Tenengrad_doublePenalty/trial_1/statistics'
p8
aS'../clusterFeatures/clusterResults/Tenengrad_doublePenalty/trial_4/statistics'
p9
aS'../clusterFeatures/clusterResults/Tenengrad_doublePenalty/trial_5/statistics'
p10
aS'../clusterFeatures/clusterResults/Tenengrad_doublePenalty/trial_2/statistics'
p11
aS'../clusterFeatures/clusterResults/NV+RS/trial_9/temp_statistics'
p12
aS'../clusterFeatures/clusterResults/NV+RS/trial_8/temp_statistics'
p13
aS'../clusterFeatures/clusterResults/NV+RS/trial_7/statistics'
p14
aS'../clusterFeatures/clusterResults/NV+RS+GCF_doublePenalty/trial_3/temp_statistics'
p15
aS'../clusterFeatures/clusterResults/NV+RS+GCF_doublePenalty/trial_1/statistics'
p16
aS'../clusterFeatures/clusterResults/NV+RS+GCF_doublePenalty/trial_5/temp_statistics'
p17
aS'../clusterFeatures/clusterResults/NV+RS+T_doublePenalty/trial_3/statistics'
p18
aS'../clusterFeatures/clusterResults/NV+RS+T_doublePenalty/trial_4/statistics'
p19
aS'../clusterFeatures/clusterResults/NV+RS+T_doublePenalty/trial_2/statistics'
p20
aS'../clusterFeatures/clusterResults/NV+RS+GCF+T_doublePenalty/trial_3/temp_statistics'
p21
aS'../clusterFeatures/clusterResults/NV+RS+GCF+T_doublePenalty/trial_4/temp_statistics'
p22
aS'../clusterFeatures/clusterResults/NV+RS+GCF+T_doublePenalty/trial_5/statistics'
p23
aS'../clusterFeatures/clusterResults/NV+RS+GCF+T_doublePenalty/trial_2/statistics'
p24
a.